; Function Attrs: mustprogress uwtable
define noundef range(i32 0, 2) i32 @_ZN12duckdb_miniz31mz_zip_reader_extract_iter_freeEPNS_32mz_zip_reader_extract_iter_stateE(ptr noundef %0) local_unnamed_addr #8 {
  %.not = icmp eq ptr %0, null
  br i1 %.not, label %53, label %2

2:                                                ; preds = %1
  %3 = load ptr, ptr %0, align 8, !tbaa !261
  %.not29 = icmp eq ptr %3, null
  br i1 %.not29, label %53, label %4

4:                                                ; preds = %2
  %5 = getelementptr inbounds nuw i8, ptr %3, i64 104
  %6 = load ptr, ptr %5, align 8, !tbaa !204
  %.not30 = icmp eq ptr %6, null
  br i1 %.not30, label %53, label %7

7:                                                ; preds = %4
  %8 = getelementptr inbounds nuw i8, ptr %0, i64 12
  %9 = load i32, ptr %8, align 4, !tbaa !263
  %10 = icmp eq i32 %9, 0
  br i1 %10, label %11, label %26

11:                                               ; preds = %7
  %12 = getelementptr inbounds nuw i8, ptr %0, i64 8
  %13 = load i32, ptr %12, align 8, !tbaa !262
  %14 = and i32 %13, 1024
  %.not31 = icmp eq i32 %14, 0
  br i1 %.not31, label %15, label %26

15:                                               ; preds = %11
  %16 = getelementptr inbounds nuw i8, ptr %0, i64 56
  %17 = load i64, ptr %16, align 8, !tbaa !266
  %18 = getelementptr inbounds nuw i8, ptr %0, i64 112
  %19 = load i64, ptr %18, align 8, !tbaa !277
  %.not32 = icmp eq i64 %17, %19
  br i1 %.not32, label %20, label %.sink.split

20:                                               ; preds = %15
  %21 = getelementptr inbounds nuw i8, ptr %0, i64 16
  %22 = load i32, ptr %21, align 8, !tbaa !264
  %23 = getelementptr inbounds nuw i8, ptr %0, i64 96
  %24 = load i32, ptr %23, align 8, !tbaa !278
  %.not33 = icmp eq i32 %22, %24
  br i1 %.not33, label %26, label %.sink.split

.sink.split:                                      ; preds = %20, %15
  %.sink = phi i32 [ 13, %15 ], [ 11, %20 ]
  %25 = getelementptr inbounds nuw i8, ptr %3, i64 28
  store i32 %.sink, ptr %25, align 4, !tbaa !213
  store i32 -1, ptr %8, align 4, !tbaa !263
  br label %26

26:                                               ; preds = %.sink.split, %20, %11, %7
  %27 = getelementptr inbounds nuw i8, ptr %6, i64 128
  %28 = load ptr, ptr %27, align 8, !tbaa !241
  %.not34 = icmp eq ptr %28, null
  br i1 %.not34, label %29, label %36

29:                                               ; preds = %26
  %30 = getelementptr inbounds nuw i8, ptr %3, i64 48
  %31 = load ptr, ptr %30, align 8, !tbaa !211
  %32 = getelementptr inbounds nuw i8, ptr %3, i64 64
  %33 = load ptr, ptr %32, align 8, !tbaa !214
  %34 = getelementptr inbounds nuw i8, ptr %0, i64 1176
  %35 = load ptr, ptr %34, align 8, !tbaa !270
  tail call void %31(ptr noundef %33, ptr noundef %35)
  %.pre38.pre = load ptr, ptr %0, align 8, !tbaa !261
  br label %36

36:                                               ; preds = %29, %26
  %.pre38 = phi ptr [ %.pre38.pre, %29 ], [ %3, %26 ]
  %37 = getelementptr inbounds nuw i8, ptr %0, i64 1184
  %38 = load ptr, ptr %37, align 8, !tbaa !275
  %.not35 = icmp eq ptr %38, null
  br i1 %.not35, label %44, label %39

39:                                               ; preds = %36
  %40 = getelementptr inbounds nuw i8, ptr %.pre38, i64 48
  %41 = load ptr, ptr %40, align 8, !tbaa !211
  %42 = getelementptr inbounds nuw i8, ptr %.pre38, i64 64
  %43 = load ptr, ptr %42, align 8, !tbaa !214
  tail call void %41(ptr noundef %43, ptr noundef nonnull %38)
  %.pre = load ptr, ptr %0, align 8, !tbaa !261
  br label %44

44:                                               ; preds = %39, %36
  %45 = phi ptr [ %.pre, %39 ], [ %.pre38, %36 ]
  %46 = load i32, ptr %8, align 4, !tbaa !263
  %47 = getelementptr inbounds nuw i8, ptr %45, i64 48
  %48 = load ptr, ptr %47, align 8, !tbaa !211
  %49 = getelementptr inbounds nuw i8, ptr %45, i64 64
  %50 = load ptr, ptr %49, align 8, !tbaa !214
  tail call void %48(ptr noundef %50, ptr noundef nonnull %0)
  %51 = icmp eq i32 %46, 0
  %52 = zext i1 %51 to i32
  br label %53

53:                                               ; preds = %1, %2, %4, %44
  %.0 = phi i32 [ %52, %44 ], [ 0, %4 ], [ 0, %2 ], [ 0, %1 ]
  ret i32 %.0
}